target datalayout = "e-m:e-p270:32:32-p271:32:32-p272:64:64-i64:64-i128:128-f80:128-n8:16:32:64-S128"
target triple = "x86_64-pc-linux-gnu"

@.str = private unnamed_addr constant [3 x i8] c"%c\00", align 1
@.str.1 = private unnamed_addr constant [18 x i8] c" %2d %d-%d %6d   \00", align 1
@.str.2 = private unnamed_addr constant [5 x i8] c"%4d\0A\00", align 1

; Function Attrs: nounwind uwtable
define internal i32 @Abc_Base2Log(i32 noundef %0) #0 {
  %2 = alloca i32, align 4
  %3 = alloca i32, align 4
  %4 = alloca i32, align 4
  store i32 %0, ptr %3, align 4
  %5 = load i32, ptr %3, align 4
  %6 = icmp ult i32 %5, 2
  br i1 %6, label %7, label %9

7:                                                ; preds = %1
  %8 = load i32, ptr %3, align 4
  store i32 %8, ptr %2, align 4
  br label %23

9:                                                ; preds = %1
  store i32 0, ptr %4, align 4
  %10 = load i32, ptr %3, align 4
  %11 = add i32 %10, -1
  store i32 %11, ptr %3, align 4
  br label %12

12:                                               ; preds = %16, %9
  %13 = load i32, ptr %3, align 4
  %14 = icmp ne i32 %13, 0
  br i1 %14, label %15, label %21

15:                                               ; preds = %12
  br label %16

16:                                               ; preds = %15
  %17 = load i32, ptr %3, align 4
  %18 = lshr i32 %17, 1
  store i32 %18, ptr %3, align 4
  %19 = load i32, ptr %4, align 4
  %20 = add nsw i32 %19, 1
  store i32 %20, ptr %4, align 4
  br label %12, !llvm.loop !23

21:                                               ; preds = %12
  %22 = load i32, ptr %4, align 4
  store i32 %22, ptr %2, align 4
  br label %23

23:                                               ; preds = %21, %7
  %24 = load i32, ptr %2, align 4
  ret i32 %24
}

; Function Attrs: nounwind uwtable
define i32 @Abc_ResCost(ptr noundef %0, ptr noundef %1, i32 noundef %2, ptr noundef %3, ptr noundef %4) #0 {
  %6 = alloca ptr, align 8
  %7 = alloca ptr, align 8
  %8 = alloca i32, align 4
  %9 = alloca ptr, align 8
  %10 = alloca ptr, align 8
  %11 = alloca i32, align 4
  %12 = alloca i32, align 4
  store ptr %0, ptr %6, align 8
  store ptr %1, ptr %7, align 8
  store i32 %2, ptr %8, align 4
  store ptr %3, ptr %9, align 8
  store ptr %4, ptr %10, align 8
  %13 = load ptr, ptr %6, align 8
  %14 = load ptr, ptr %7, align 8
  %15 = load i32, ptr %8, align 4
  %16 = load ptr, ptr %10, align 8
  %17 = call i32 @Abc_ResCofCount(ptr noundef %13, ptr noundef %14, i32 noundef %15, ptr noundef %16)
  store i32 %17, ptr %11, align 4
  %18 = load i32, ptr %11, align 4
  %19 = call i32 @Abc_Base2Log(i32 noundef %18)
  store i32 %19, ptr %12, align 4
  %20 = load ptr, ptr %9, align 8
  %21 = icmp ne ptr %20, null
  br i1 %21, label %22, label %25

22:                                               ; preds = %5
  %23 = load i32, ptr %11, align 4
  %24 = load ptr, ptr %9, align 8
  store i32 %23, ptr %24, align 4
  br label %25

25:                                               ; preds = %22, %5
  %26 = load i32, ptr %12, align 4
  %27 = mul nsw i32 10000, %26
  %28 = load i32, ptr %11, align 4
  %29 = load i32, ptr %12, align 4
  %30 = sub nsw i32 %29, 1
  %31 = shl i32 1, %30
  %32 = sub nsw i32 %28, %31
  %33 = load i32, ptr %11, align 4
  %34 = load i32, ptr %12, align 4
  %35 = sub nsw i32 %34, 1
  %36 = shl i32 1, %35
  %37 = sub nsw i32 %33, %36
  %38 = mul nsw i32 %32, %37
  %39 = add nsw i32 %27, %38
  ret i32 %39
}

; Function Attrs: nounwind uwtable
define void @Abc_ResPrint(ptr noundef %0, ptr noundef %1, i32 noundef %2, ptr noundef %3, i32 noundef %4) #0 {
  %6 = alloca ptr, align 8
  %7 = alloca ptr, align 8
  %8 = alloca i32, align 4
  %9 = alloca ptr, align 8
  %10 = alloca i32, align 4
  %11 = alloca i32, align 4
  %12 = alloca i32, align 4
  %13 = alloca i32, align 4
  %14 = alloca i32, align 4
  %15 = alloca i32, align 4
  %16 = alloca i32, align 4
  store ptr %0, ptr %6, align 8
  store ptr %1, ptr %7, align 8
  store i32 %2, ptr %8, align 4
  store ptr %3, ptr %9, align 8
  store i32 %4, ptr %10, align 4
  store i32 0, ptr %15, align 4
  store i32 0, ptr %11, align 4
  br label %17

17:                                               ; preds = %64, %5
  %18 = load i32, ptr %11, align 4
  %19 = load i32, ptr %10, align 4
  %20 = icmp slt i32 %18, %19
  br i1 %20, label %21, label %67

21:                                               ; preds = %17
  %22 = load ptr, ptr %6, align 8
  %23 = load ptr, ptr %7, align 8
  %24 = load ptr, ptr %9, align 8
  %25 = load i32, ptr %11, align 4
  %26 = sext i32 %25 to i64
  %27 = getelementptr inbounds i32, ptr %24, i64 %26
  %28 = load i32, ptr %27, align 4
  %29 = call i32 @Abc_ResCost(ptr noundef %22, ptr noundef %23, i32 noundef %28, ptr noundef %13, ptr noundef %16)
  store i32 %29, ptr %14, align 4
  %30 = load i32, ptr %14, align 4
  %31 = load i32, ptr %15, align 4
  %32 = add nsw i32 %31, %30
  store i32 %32, ptr %15, align 4
  store i32 0, ptr %12, align 4
  br label %33

33:                                               ; preds = %54, %21
  %34 = load i32, ptr %12, align 4
  %35 = load i32, ptr %8, align 4
  %36 = icmp slt i32 %34, %35
  br i1 %36, label %37, label %57

37:                                               ; preds = %33
  %38 = load ptr, ptr %9, align 8
  %39 = load i32, ptr %11, align 4
  %40 = sext i32 %39 to i64
  %41 = getelementptr inbounds i32, ptr %38, i64 %40
  %42 = load i32, ptr %41, align 4
  %43 = load i32, ptr %12, align 4
  %44 = shl i32 1, %43
  %45 = and i32 %42, %44
  %46 = icmp ne i32 %45, 0
  br i1 %46, label %47, label %50

47:                                               ; preds = %37
  %48 = load i32, ptr %12, align 4
  %49 = add nsw i32 97, %48
  br label %51

50:                                               ; preds = %37
  br label %51

51:                                               ; preds = %50, %47
  %52 = phi i32 [ %49, %47 ], [ 45, %50 ]
  %53 = call i32 (ptr, ...) @printf(ptr noundef @.str, i32 noundef %52)
  br label %54

54:                                               ; preds = %51
  %55 = load i32, ptr %12, align 4
  %56 = add nsw i32 %55, 1
  store i32 %56, ptr %12, align 4
  br label %33, !llvm.loop !26

57:                                               ; preds = %33
  %58 = load i32, ptr %13, align 4
  %59 = load i32, ptr %13, align 4
  %60 = call i32 @Abc_Base2Log(i32 noundef %59)
  %61 = load i32, ptr %16, align 4
  %62 = load i32, ptr %14, align 4
  %63 = call i32 (ptr, ...) @printf(ptr noundef @.str.1, i32 noundef %58, i32 noundef %60, i32 noundef %61, i32 noundef %62)
  br label %64

64:                                               ; preds = %57
  %65 = load i32, ptr %11, align 4
  %66 = add nsw i32 %65, 1
  store i32 %66, ptr %11, align 4
  br label %17, !llvm.loop !27

67:                                               ; preds = %17
  %68 = load i32, ptr %15, align 4
  %69 = call i32 (ptr, ...) @printf(ptr noundef @.str.2, i32 noundef %68)
  ret void
}