; Function Attrs: nounwind uwtable
define void @Abc_ResPrint(ptr noundef %0, ptr noundef %1, i32 noundef %2, ptr noundef readonly captures(none) %3, i32 noundef %4) local_unnamed_addr #0 {
  %6 = alloca i32, align 4
  %7 = icmp sgt i32 %4, 0
  br i1 %7, label %.lr.ph23, label %._crit_edge24

.lr.ph23:                                         ; preds = %5
  %8 = icmp sgt i32 %2, 0
  %wide.trip.count32 = zext nneg i32 %4 to i64
  br i1 %8, label %.lr.ph.us, label %.lr.ph23.split

.lr.ph.us:                                        ; preds = %.lr.ph23, %._crit_edge.us
  %indvars.iv29 = phi i64 [ %indvars.iv.next30, %._crit_edge.us ], [ 0, %.lr.ph23 ]
  %.021.us = phi i32 [ %28, %._crit_edge.us ], [ 0, %.lr.ph23 ]
  %9 = getelementptr inbounds nuw i32, ptr %3, i64 %indvars.iv29
  %10 = load i32, ptr %9, align 4
  %11 = call i32 @Abc_ResCofCount(ptr noundef %0, ptr noundef %1, i32 noundef %10, ptr noundef nonnull %6)
  %12 = icmp ult i32 %11, 2
  %13 = add i32 %11, -1
  %14 = call range(i32 0, 33) i32 @llvm.ctlz.i32(i32 %13, i1 true)
  %15 = sub nuw nsw i32 32, %14
  %.09.i.i.us = select i1 %12, i32 %11, i32 %15
  %16 = mul nsw i32 %.09.i.i.us, 10000
  %17 = add nsw i32 %.09.i.i.us, -1
  %.neg.i.us = shl nsw i32 -1, %17
  %18 = add i32 %.neg.i.us, %11
  %19 = mul nsw i32 %18, %18
  %20 = add nsw i32 %19, %16
  br label %21

21:                                               ; preds = %.lr.ph.us, %21
  %.01819.us = phi i32 [ 0, %.lr.ph.us ], [ %27, %21 ]
  %22 = load i32, ptr %9, align 4
  %23 = shl nuw i32 1, %.01819.us
  %24 = and i32 %22, %23
  %.not.us = icmp eq i32 %24, 0
  %25 = add nuw nsw i32 %.01819.us, 97
  %26 = select i1 %.not.us, i32 45, i32 %25
  %putchar.us = call i32 @putchar(i32 %26)
  %27 = add nuw nsw i32 %.01819.us, 1
  %exitcond28.not = icmp eq i32 %27, %2
  br i1 %exitcond28.not, label %._crit_edge.us, label %21, !llvm.loop !22

._crit_edge.us:                                   ; preds = %21
  %28 = add nsw i32 %20, %.021.us
  %29 = load i32, ptr %6, align 4
  %30 = call i32 (ptr, ...) @printf(ptr noundef nonnull dereferenceable(1) @.str.1, i32 noundef %11, i32 noundef %.09.i.i.us, i32 noundef %29, i32 noundef %20)
  %indvars.iv.next30 = add nuw nsw i64 %indvars.iv29, 1
  %exitcond33.not = icmp eq i64 %indvars.iv.next30, %wide.trip.count32
  br i1 %exitcond33.not, label %._crit_edge24, label %.lr.ph.us, !llvm.loop !23

.lr.ph23.split:                                   ; preds = %.lr.ph23, %.lr.ph23.split
  %indvars.iv = phi i64 [ %indvars.iv.next, %.lr.ph23.split ], [ 0, %.lr.ph23 ]
  %.021 = phi i32 [ %43, %.lr.ph23.split ], [ 0, %.lr.ph23 ]
  %31 = getelementptr inbounds nuw i32, ptr %3, i64 %indvars.iv
  %32 = load i32, ptr %31, align 4
  %33 = call i32 @Abc_ResCofCount(ptr noundef %0, ptr noundef %1, i32 noundef %32, ptr noundef nonnull %6)
  %34 = icmp ult i32 %33, 2
  %35 = add i32 %33, -1
  %36 = call range(i32 0, 33) i32 @llvm.ctlz.i32(i32 %35, i1 true)
  %37 = sub nuw nsw i32 32, %36
  %.09.i.i = select i1 %34, i32 %33, i32 %37
  %38 = mul nuw nsw i32 %.09.i.i, 10000
  %39 = add nsw i32 %.09.i.i, -1
  %.neg.i = shl nsw i32 -1, %39
  %40 = add i32 %.neg.i, %33
  %41 = mul nsw i32 %40, %40
  %42 = add nuw nsw i32 %41, %38
  %43 = add nuw nsw i32 %42, %.021
  %44 = load i32, ptr %6, align 4
  %45 = call i32 (ptr, ...) @printf(ptr noundef nonnull dereferenceable(1) @.str.1, i32 noundef %33, i32 noundef %.09.i.i, i32 noundef %44, i32 noundef %42)
  %indvars.iv.next = add nuw nsw i64 %indvars.iv, 1
  %exitcond.not = icmp eq i64 %indvars.iv.next, %wide.trip.count32
  br i1 %exitcond.not, label %._crit_edge24, label %.lr.ph23.split, !llvm.loop !23

._crit_edge24:                                    ; preds = %.lr.ph23.split, %._crit_edge.us, %5
  %.0.lcssa = phi i32 [ 0, %5 ], [ %28, %._crit_edge.us ], [ %43, %.lr.ph23.split ]
  %46 = call i32 (ptr, ...) @printf(ptr noundef nonnull dereferenceable(1) @.str.2, i32 noundef %.0.lcssa)
  ret void
}